target datalayout = "e-m:e-p270:32:32-p271:32:32-p272:64:64-i64:64-i128:128-f80:128-n8:16:32:64-S128"
target triple = "x86_64-pc-linux-gnu"

%struct.AVExpr = type { i32, double, i32, %union.anon, [3 x ptr], ptr, ptr }
%union.anon = type { ptr }
%struct.Parser = type { ptr, i32, ptr, ptr, ptr, ptr, ptr, ptr, ptr, ptr, i32, ptr, ptr, ptr }

@eval_class = internal constant { ptr, ptr, ptr, i32, i32, i32, i32, ptr, ptr, ptr, ptr, i32, [4 x i8] } { ptr @.str.2, ptr @av_default_item_name, ptr null, i32 3932772, i32 80, i32 88, i32 0, ptr null, ptr null, ptr null, ptr null, i32 0, [4 x i8] zeroinitializer }, align 8

; Function Attrs: nounwind uwtable
define double @av_expr_eval(ptr noundef %0, ptr noundef %1, ptr noundef %2) #0 {
  %4 = alloca ptr, align 8
  %5 = alloca ptr, align 8
  %6 = alloca ptr, align 8
  %7 = alloca %struct.Parser, align 8
  store ptr %0, ptr %4, align 8, !tbaa !21
  store ptr %1, ptr %5, align 8, !tbaa !54
  store ptr %2, ptr %6, align 8, !tbaa !26
  call void @llvm.lifetime.start.p0(i64 112, ptr %7) #12
  %8 = getelementptr inbounds nuw %struct.Parser, ptr %7, i32 0, i32 0
  store ptr @eval_class, ptr %8, align 8, !tbaa !29
  %9 = getelementptr inbounds nuw %struct.Parser, ptr %7, i32 0, i32 1
  store i32 0, ptr %9, align 8, !tbaa !34
  %10 = getelementptr i8, ptr %7, i64 12
  call void @llvm.memset.p0.i64(ptr align 4 %10, i8 0, i64 4, i1 false)
  %11 = getelementptr inbounds nuw %struct.Parser, ptr %7, i32 0, i32 2
  store ptr null, ptr %11, align 8, !tbaa !35
  %12 = getelementptr inbounds nuw %struct.Parser, ptr %7, i32 0, i32 3
  %13 = load ptr, ptr %5, align 8, !tbaa !54
  store ptr %13, ptr %12, align 8, !tbaa !55
  %14 = getelementptr inbounds nuw %struct.Parser, ptr %7, i32 0, i32 4
  store ptr null, ptr %14, align 8, !tbaa !36
  %15 = getelementptr inbounds nuw %struct.Parser, ptr %7, i32 0, i32 5
  store ptr null, ptr %15, align 8, !tbaa !37
  %16 = getelementptr inbounds nuw %struct.Parser, ptr %7, i32 0, i32 6
  store ptr null, ptr %16, align 8, !tbaa !38
  %17 = getelementptr inbounds nuw %struct.Parser, ptr %7, i32 0, i32 7
  store ptr null, ptr %17, align 8, !tbaa !39
  %18 = getelementptr inbounds nuw %struct.Parser, ptr %7, i32 0, i32 8
  store ptr null, ptr %18, align 8, !tbaa !40
  %19 = getelementptr inbounds nuw %struct.Parser, ptr %7, i32 0, i32 9
  %20 = load ptr, ptr %6, align 8, !tbaa !26
  store ptr %20, ptr %19, align 8, !tbaa !56
  %21 = getelementptr inbounds nuw %struct.Parser, ptr %7, i32 0, i32 10
  store i32 0, ptr %21, align 8, !tbaa !41
  %22 = getelementptr i8, ptr %7, i64 84
  call void @llvm.memset.p0.i64(ptr align 4 %22, i8 0, i64 4, i1 false)
  %23 = getelementptr inbounds nuw %struct.Parser, ptr %7, i32 0, i32 11
  store ptr null, ptr %23, align 8, !tbaa !42
  %24 = getelementptr inbounds nuw %struct.Parser, ptr %7, i32 0, i32 12
  %25 = load ptr, ptr %4, align 8, !tbaa !21
  %26 = getelementptr inbounds nuw %struct.AVExpr, ptr %25, i32 0, i32 5
  %27 = load ptr, ptr %26, align 8, !tbaa !43
  store ptr %27, ptr %24, align 8, !tbaa !57
  %28 = getelementptr inbounds nuw %struct.Parser, ptr %7, i32 0, i32 13
  %29 = load ptr, ptr %4, align 8, !tbaa !21
  %30 = getelementptr inbounds nuw %struct.AVExpr, ptr %29, i32 0, i32 6
  %31 = load ptr, ptr %30, align 8, !tbaa !45
  store ptr %31, ptr %28, align 8, !tbaa !58
  %32 = load ptr, ptr %4, align 8, !tbaa !21
  %33 = call nsz double @eval_expr(ptr noundef %7, ptr noundef %32)
  call void @llvm.lifetime.end.p0(i64 112, ptr %7) #12
  ret double %33
}

; Function Attrs: nounwind uwtable
define i32 @av_expr_parse_and_eval(ptr noundef %0, ptr noundef %1, ptr noundef %2, ptr noundef %3, ptr noundef %4, ptr noundef %5, ptr noundef %6, ptr noundef %7, ptr noundef %8, i32 noundef %9, ptr noundef %10) #0 {
  %12 = alloca i32, align 4
  %13 = alloca ptr, align 8
  %14 = alloca ptr, align 8
  %15 = alloca ptr, align 8
  %16 = alloca ptr, align 8
  %17 = alloca ptr, align 8
  %18 = alloca ptr, align 8
  %19 = alloca ptr, align 8
  %20 = alloca ptr, align 8
  %21 = alloca ptr, align 8
  %22 = alloca i32, align 4
  %23 = alloca ptr, align 8
  %24 = alloca ptr, align 8
  %25 = alloca i32, align 4
  %26 = alloca i32, align 4
  store ptr %0, ptr %13, align 8, !tbaa !54
  store ptr %1, ptr %14, align 8, !tbaa !4
  store ptr %2, ptr %15, align 8, !tbaa !9
  store ptr %3, ptr %16, align 8, !tbaa !54
  store ptr %4, ptr %17, align 8, !tbaa !9
  store ptr %5, ptr %18, align 8, !tbaa !25
  store ptr %6, ptr %19, align 8, !tbaa !9
  store ptr %7, ptr %20, align 8, !tbaa !25
  store ptr %8, ptr %21, align 8, !tbaa !26
  store i32 %9, ptr %22, align 4, !tbaa !17
  store ptr %10, ptr %23, align 8, !tbaa !26
  call void @llvm.lifetime.start.p0(i64 8, ptr %24) #12
  store ptr null, ptr %24, align 8, !tbaa !21
  call void @llvm.lifetime.start.p0(i64 4, ptr %25) #12
  %27 = load ptr, ptr %14, align 8, !tbaa !4
  %28 = load ptr, ptr %15, align 8, !tbaa !9
  %29 = load ptr, ptr %17, align 8, !tbaa !9
  %30 = load ptr, ptr %18, align 8, !tbaa !25
  %31 = load ptr, ptr %19, align 8, !tbaa !9
  %32 = load ptr, ptr %20, align 8, !tbaa !25
  %33 = load i32, ptr %22, align 4, !tbaa !17
  %34 = load ptr, ptr %23, align 8, !tbaa !26
  %35 = call i32 @av_expr_parse(ptr noundef %24, ptr noundef %27, ptr noundef %28, ptr noundef %29, ptr noundef %30, ptr noundef %31, ptr noundef %32, i32 noundef %33, ptr noundef %34)
  store i32 %35, ptr %25, align 4, !tbaa !17
  %36 = load i32, ptr %25, align 4, !tbaa !17
  %37 = icmp slt i32 %36, 0
  br i1 %37, label %38, label %41

38:                                               ; preds = %11
  %39 = load ptr, ptr %13, align 8, !tbaa !54
  store double 0x7FF8000000000000, ptr %39, align 8, !tbaa !13
  %40 = load i32, ptr %25, align 4, !tbaa !17
  store i32 %40, ptr %12, align 4
  store i32 1, ptr %26, align 4
  br label %52

41:                                               ; preds = %11
  %42 = load ptr, ptr %24, align 8, !tbaa !21
  %43 = load ptr, ptr %16, align 8, !tbaa !54
  %44 = load ptr, ptr %21, align 8, !tbaa !26
  %45 = call nsz double @av_expr_eval(ptr noundef %42, ptr noundef %43, ptr noundef %44)
  %46 = load ptr, ptr %13, align 8, !tbaa !54
  store double %45, ptr %46, align 8, !tbaa !13
  %47 = load ptr, ptr %24, align 8, !tbaa !21
  call void @av_expr_free(ptr noundef %47)
  %48 = load ptr, ptr %13, align 8, !tbaa !54
  %49 = load double, ptr %48, align 8, !tbaa !13
  %50 = call i1 @llvm.is.fpclass.f64(double %49, i32 3)
  %51 = select i1 %50, i32 -22, i32 0
  store i32 %51, ptr %12, align 4
  store i32 1, ptr %26, align 4
  br label %52

52:                                               ; preds = %41, %38
  call void @llvm.lifetime.end.p0(i64 4, ptr %25) #12
  call void @llvm.lifetime.end.p0(i64 8, ptr %24) #12
  %53 = load i32, ptr %12, align 4
  ret i32 %53
}