; Function Attrs: nounwind uwtable
define range(i32 -2147483648, 1) i32 @av_expr_parse_and_eval(ptr noundef captures(none) initializes((0, 8)) %0, ptr noundef %1, ptr noundef %2, ptr noundef %3, ptr noundef %4, ptr noundef %5, ptr noundef %6, ptr noundef %7, ptr noundef %8, i32 noundef %9, ptr noundef %10) local_unnamed_addr #3 {
  %12 = alloca %struct.Parser, align 8
  %13 = alloca ptr, align 8
  call void @llvm.lifetime.start.p0(i64 8, ptr nonnull %13) #14
  store ptr null, ptr %13, align 8, !tbaa !15
  %14 = call i32 @av_expr_parse(ptr noundef nonnull %13, ptr noundef %1, ptr noundef %2, ptr noundef %4, ptr noundef %5, ptr noundef %6, ptr noundef %7, i32 noundef %9, ptr noundef %10)
  %15 = icmp slt i32 %14, 0
  br i1 %15, label %16, label %17

16:                                               ; preds = %11
  store double 0x7FF8000000000000, ptr %0, align 8, !tbaa !49
  br label %34

17:                                               ; preds = %11
  %18 = load ptr, ptr %13, align 8, !tbaa !15
  call void @llvm.lifetime.start.p0(i64 112, ptr nonnull %12) #14
  store ptr @eval_class, ptr %12, align 8, !tbaa !19
  %19 = getelementptr inbounds nuw i8, ptr %12, i64 8
  %20 = getelementptr inbounds nuw i8, ptr %12, i64 24
  call void @llvm.memset.p0.i64(ptr noundef nonnull align 8 dereferenceable(16) %19, i8 0, i64 16, i1 false)
  store ptr %3, ptr %20, align 8, !tbaa !45
  %21 = getelementptr inbounds nuw i8, ptr %12, i64 32
  %22 = getelementptr inbounds nuw i8, ptr %12, i64 72
  call void @llvm.memset.p0.i64(ptr noundef nonnull align 8 dereferenceable(40) %21, i8 0, i64 40, i1 false)
  store ptr %8, ptr %22, align 8, !tbaa !46
  %23 = getelementptr inbounds nuw i8, ptr %12, i64 80
  %24 = getelementptr inbounds nuw i8, ptr %12, i64 96
  %25 = getelementptr inbounds nuw i8, ptr %18, i64 56
  call void @llvm.memset.p0.i64(ptr noundef nonnull align 8 dereferenceable(16) %23, i8 0, i64 16, i1 false)
  %26 = load ptr, ptr %25, align 8, !tbaa !36
  store ptr %26, ptr %24, align 8, !tbaa !47
  %27 = getelementptr inbounds nuw i8, ptr %12, i64 104
  %28 = getelementptr inbounds nuw i8, ptr %18, i64 64
  %29 = load ptr, ptr %28, align 8, !tbaa !38
  store ptr %29, ptr %27, align 8, !tbaa !48
  %30 = call nsz fastcc double @eval_expr(ptr noundef %12, ptr noundef %18)
  call void @llvm.lifetime.end.p0(i64 112, ptr nonnull %12) #14
  store double %30, ptr %0, align 8, !tbaa !49
  call void @av_expr_free(ptr noundef %18)
  %31 = load double, ptr %0, align 8, !tbaa !49
  %32 = fcmp uno double %31, 0.000000e+00
  %33 = select i1 %32, i32 -22, i32 0
  br label %34

34:                                               ; preds = %17, %16
  %.0 = phi i32 [ %14, %16 ], [ %33, %17 ]
  call void @llvm.lifetime.end.p0(i64 8, ptr nonnull %13) #14
  ret i32 %.0
}